target datalayout = "e-m:e-p270:32:32-p271:32:32-p272:64:64-i64:64-i128:128-f80:128-n8:16:32:64-S128"
target triple = "x86_64-pc-linux-gnu"

%struct.lib_blkoutstream_s = type { %struct.lib_outstream_s, ptr, %struct.geometry, ptr }
%struct.lib_outstream_s = type { i32, ptr, ptr, ptr }
%struct.geometry = type { i8, i8, i8, i32, i16, [33 x i8] }
%struct.inode = type { ptr, ptr, ptr, i16, i16, %union.inode_ops_u, i16, ptr, [1 x i8] }
%union.inode_ops_u = type { ptr }
%struct.block_operations = type { ptr, ptr, ptr, ptr, ptr, ptr, ptr }

; Function Attrs: nounwind uwtable
define i32 @lib_blkoutstream_open(ptr noundef %0, ptr noundef %1) #0 {
  %3 = alloca i32, align 4
  %4 = alloca ptr, align 8
  %5 = alloca ptr, align 8
  %6 = alloca ptr, align 8
  %7 = alloca i32, align 4
  store ptr %0, ptr %4, align 8
  store ptr %1, ptr %5, align 8
  store ptr null, ptr %6, align 8
  %8 = load ptr, ptr %4, align 8
  %9 = icmp eq ptr %8, null
  br i1 %9, label %13, label %10

10:                                               ; preds = %2
  %11 = load ptr, ptr %5, align 8
  %12 = icmp eq ptr %11, null
  br i1 %12, label %13, label %14

13:                                               ; preds = %10, %2
  store i32 -22, ptr %3, align 4
  br label %92

14:                                               ; preds = %10
  %15 = load ptr, ptr %5, align 8
  %16 = call i32 @open_blockdriver(ptr noundef %15, i32 noundef 0, ptr noundef %6)
  store i32 %16, ptr %7, align 4
  %17 = load i32, ptr %7, align 4
  %18 = icmp slt i32 %17, 0
  br i1 %18, label %19, label %21

19:                                               ; preds = %14
  %20 = load i32, ptr %7, align 4
  store i32 %20, ptr %3, align 4
  br label %92

21:                                               ; preds = %14
  %22 = load ptr, ptr %4, align 8
  call void @llvm.memset.p0.i64(ptr align 8 %22, i8 0, i64 96, i1 false)
  %23 = load ptr, ptr %6, align 8
  %24 = getelementptr inbounds %struct.inode, ptr %23, i32 0, i32 5
  %25 = load ptr, ptr %24, align 8
  %26 = getelementptr inbounds %struct.block_operations, ptr %25, i32 0, i32 4
  %27 = load ptr, ptr %26, align 8
  %28 = icmp eq ptr %27, null
  br i1 %28, label %60, label %29

29:                                               ; preds = %21
  %30 = load ptr, ptr %6, align 8
  %31 = getelementptr inbounds %struct.inode, ptr %30, i32 0, i32 5
  %32 = load ptr, ptr %31, align 8
  %33 = getelementptr inbounds %struct.block_operations, ptr %32, i32 0, i32 3
  %34 = load ptr, ptr %33, align 8
  %35 = icmp eq ptr %34, null
  br i1 %35, label %60, label %36

36:                                               ; preds = %29
  %37 = load ptr, ptr %6, align 8
  %38 = getelementptr inbounds %struct.inode, ptr %37, i32 0, i32 5
  %39 = load ptr, ptr %38, align 8
  %40 = getelementptr inbounds %struct.block_operations, ptr %39, i32 0, i32 4
  %41 = load ptr, ptr %40, align 8
  %42 = load ptr, ptr %6, align 8
  %43 = load ptr, ptr %4, align 8
  %44 = getelementptr inbounds %struct.lib_blkoutstream_s, ptr %43, i32 0, i32 2
  %45 = call i32 %41(ptr noundef %42, ptr noundef %44)
  %46 = icmp slt i32 %45, 0
  br i1 %46, label %60, label %47

47:                                               ; preds = %36
  %48 = load ptr, ptr %4, align 8
  %49 = getelementptr inbounds %struct.lib_blkoutstream_s, ptr %48, i32 0, i32 2
  %50 = getelementptr inbounds %struct.geometry, ptr %49, i32 0, i32 4
  %51 = load i16, ptr %50, align 8
  %52 = sext i16 %51 to i32
  %53 = icmp sle i32 %52, 0
  br i1 %53, label %60, label %54

54:                                               ; preds = %47
  %55 = load ptr, ptr %4, align 8
  %56 = getelementptr inbounds %struct.lib_blkoutstream_s, ptr %55, i32 0, i32 2
  %57 = getelementptr inbounds %struct.geometry, ptr %56, i32 0, i32 3
  %58 = load i32, ptr %57, align 4
  %59 = icmp ule i32 %58, 0
  br i1 %59, label %60, label %63

60:                                               ; preds = %54, %47, %36, %29, %21
  %61 = load ptr, ptr %6, align 8
  %62 = call i32 @close_blockdriver(ptr noundef %61)
  store i32 -22, ptr %3, align 4
  br label %92

63:                                               ; preds = %54
  %64 = load ptr, ptr %4, align 8
  %65 = getelementptr inbounds %struct.lib_blkoutstream_s, ptr %64, i32 0, i32 2
  %66 = getelementptr inbounds %struct.geometry, ptr %65, i32 0, i32 4
  %67 = load i16, ptr %66, align 8
  %68 = sext i16 %67 to i64
  %69 = call noalias ptr @malloc(i64 noundef %68) #5
  %70 = load ptr, ptr %4, align 8
  %71 = getelementptr inbounds %struct.lib_blkoutstream_s, ptr %70, i32 0, i32 3
  store ptr %69, ptr %71, align 8
  %72 = load ptr, ptr %4, align 8
  %73 = getelementptr inbounds %struct.lib_blkoutstream_s, ptr %72, i32 0, i32 3
  %74 = load ptr, ptr %73, align 8
  %75 = icmp eq ptr %74, null
  br i1 %75, label %76, label %79

76:                                               ; preds = %63
  %77 = load ptr, ptr %6, align 8
  %78 = call i32 @close_blockdriver(ptr noundef %77)
  store i32 -12, ptr %3, align 4
  br label %92

79:                                               ; preds = %63
  %80 = load ptr, ptr %6, align 8
  %81 = load ptr, ptr %4, align 8
  %82 = getelementptr inbounds %struct.lib_blkoutstream_s, ptr %81, i32 0, i32 1
  store ptr %80, ptr %82, align 8
  %83 = load ptr, ptr %4, align 8
  %84 = getelementptr inbounds %struct.lib_blkoutstream_s, ptr %83, i32 0, i32 0
  %85 = getelementptr inbounds %struct.lib_outstream_s, ptr %84, i32 0, i32 1
  store ptr @blkoutstream_putc, ptr %85, align 8
  %86 = load ptr, ptr %4, align 8
  %87 = getelementptr inbounds %struct.lib_blkoutstream_s, ptr %86, i32 0, i32 0
  %88 = getelementptr inbounds %struct.lib_outstream_s, ptr %87, i32 0, i32 2
  store ptr @blkoutstream_puts, ptr %88, align 8
  %89 = load ptr, ptr %4, align 8
  %90 = getelementptr inbounds %struct.lib_blkoutstream_s, ptr %89, i32 0, i32 0
  %91 = getelementptr inbounds %struct.lib_outstream_s, ptr %90, i32 0, i32 3
  store ptr @blkoutstream_flush, ptr %91, align 8
  store i32 0, ptr %3, align 4
  br label %92

92:                                               ; preds = %79, %76, %60, %19, %13
  %93 = load i32, ptr %3, align 4
  ret i32 %93
}