; Function Attrs: nounwind uwtable
define range(i32 -2147483648, 1) i32 @lib_blkoutstream_open(ptr noundef %0, ptr noundef %1) local_unnamed_addr #0 {
  %3 = alloca ptr, align 8
  store ptr null, ptr %3, align 8
  %4 = icmp eq ptr %0, null
  %5 = icmp eq ptr %1, null
  %or.cond = or i1 %4, %5
  br i1 %or.cond, label %48, label %6

6:                                                ; preds = %2
  %7 = call i32 @open_blockdriver(ptr noundef nonnull %1, i32 noundef 0, ptr noundef nonnull %3) #6
  %8 = icmp slt i32 %7, 0
  br i1 %8, label %48, label %9

9:                                                ; preds = %6
  call void @llvm.memset.p0.i64(ptr noundef nonnull align 8 dereferenceable(96) %0, i8 0, i64 96, i1 false)
  %10 = load ptr, ptr %3, align 8
  %11 = getelementptr inbounds nuw i8, ptr %10, i64 32
  %12 = load ptr, ptr %11, align 8
  %13 = getelementptr inbounds nuw i8, ptr %12, i64 32
  %14 = load ptr, ptr %13, align 8
  %15 = icmp eq ptr %14, null
  br i1 %15, label %32, label %16

16:                                               ; preds = %9
  %17 = getelementptr inbounds nuw i8, ptr %12, i64 24
  %18 = load ptr, ptr %17, align 8
  %19 = icmp eq ptr %18, null
  br i1 %19, label %32, label %20

20:                                               ; preds = %16
  %21 = getelementptr inbounds nuw i8, ptr %0, i64 40
  %22 = call i32 %14(ptr noundef nonnull %10, ptr noundef nonnull %21) #6
  %23 = icmp slt i32 %22, 0
  br i1 %23, label %32, label %24

24:                                               ; preds = %20
  %25 = getelementptr inbounds nuw i8, ptr %0, i64 48
  %26 = load i16, ptr %25, align 8
  %27 = icmp slt i16 %26, 1
  br i1 %27, label %32, label %28

28:                                               ; preds = %24
  %29 = getelementptr inbounds nuw i8, ptr %0, i64 44
  %30 = load i32, ptr %29, align 4
  %31 = icmp eq i32 %30, 0
  br i1 %31, label %32, label %35

32:                                               ; preds = %28, %24, %20, %16, %9
  %33 = load ptr, ptr %3, align 8
  %34 = call i32 @close_blockdriver(ptr noundef %33) #6
  br label %48

35:                                               ; preds = %28
  %36 = zext nneg i16 %26 to i64
  %37 = call noalias ptr @malloc(i64 noundef %36) #7
  %38 = getelementptr inbounds nuw i8, ptr %0, i64 88
  store ptr %37, ptr %38, align 8
  %39 = icmp eq ptr %37, null
  %40 = load ptr, ptr %3, align 8
  br i1 %39, label %41, label %43

41:                                               ; preds = %35
  %42 = call i32 @close_blockdriver(ptr noundef %40) #6
  br label %48

43:                                               ; preds = %35
  %44 = getelementptr inbounds nuw i8, ptr %0, i64 32
  store ptr %40, ptr %44, align 8
  %45 = getelementptr inbounds nuw i8, ptr %0, i64 8
  store ptr @blkoutstream_putc, ptr %45, align 8
  %46 = getelementptr inbounds nuw i8, ptr %0, i64 16
  store ptr @blkoutstream_puts, ptr %46, align 8
  %47 = getelementptr inbounds nuw i8, ptr %0, i64 24
  store ptr @blkoutstream_flush, ptr %47, align 8
  br label %48

48:                                               ; preds = %6, %2, %43, %41, %32
  %.0 = phi i32 [ -22, %32 ], [ -12, %41 ], [ 0, %43 ], [ -22, %2 ], [ %7, %6 ]
  ret i32 %.0
}